Certificate:
    Data:
        Version: 3 (0x2)
        Serial Number: 4096 (0x1000)
        Signature Algorithm: ED25519
        Issuer: C=US, ST=NY, L=NYC, O=Test Inc., OU=Testing Root CA, CN=r00t/emailAddress=security@test.com
        Validity
            Not Before: Mar 23 15:39:06 2021 GMT
            Not After : Jan 30 15:39:06 2031 GMT
        Subject: C=US, ST=NY, O=Test Inc., OU=Test Intermediary CA, CN=1nt3r/emailAddress=security@test.com
        Subject Public Key Info:
            Public Key Algorithm: ED25519
                ED25519 Public-Key:
                pub:
                    b4:54:0a:b1:15:6d:6f:d0:ff:b9:f1:fa:f2:b8:21:
                    7d:97:20:bf:95:22:0d:5c:ce:21:6e:18:cb:b9:7b:
                    26:8b
        X509v3 extensions:
            X509v3 Subject Key Identifier: 
                31:BC:26:9B:7D:39:22:0F:3C:D0:58:F3:DC:1E:B9:33:A3:24:96:9D
            X509v3 Authority Key Identifier: 
                keyid:53:AB:72:E4:4D:87:28:57:37:BA:F0:D8:17:01:47:DB:D6:9D:62:3A

            X509v3 Basic Constraints: critical
                CA:TRUE, pathlen:0
            X509v3 Key Usage: critical
                Digital Signature, Certificate Sign
    Signature Algorithm: ED25519
         38:a2:3c:fc:ec:92:c7:65:ef:0a:63:f7:2d:0f:19:9b:84:77:
         d3:98:1f:ee:6a:9e:af:88:3a:a4:6b:61:6e:bf:80:29:42:9c:
         51:ac:eb:55:ef:a4:7a:03:f3:6e:f4:e5:96:3c:62:0d:e5:83:
         8b:50:c0:ff:d6:d8:9a:d2:ee:0d
-----BEGIN CERTIFICATE-----
MIICHTCCAc+gAwIBAgICEAAwBQYDK2VwMIGHMQswCQYDVQQGEwJVUzELMAkGA1UE
CAwCTlkxDDAKBgNVBAcMA05ZQzESMBAGA1UECgwJVGVzdCBJbmMuMRgwFgYDVQQL
DA9UZXN0aW5nIFJvb3QgQ0ExDTALBgNVBAMMBHIwMHQxIDAeBgkqhkiG9w0BCQEW
EXNlY3VyaXR5QHRlc3QuY29tMB4XDTIxMDMyMzE1MzkwNloXDTMxMDEzMDE1Mzkw
NlowfzELMAkGA1UEBhMCVVMxCzAJBgNVBAgMAk5ZMRIwEAYDVQQKDAlUZXN0IElu
Yy4xHTAbBgNVBAsMFFRlc3QgSW50ZXJtZWRpYXJ5IENBMQ4wDAYDVQQDDAUxbnQz
cjEgMB4GCSqGSIb3DQEJARYRc2VjdXJpdHlAdGVzdC5jb20wKjAFBgMrZXADIQC0
VAqxFW1v0P+58fryuCF9lyC/lSINXM4hbhjLuXsmi6NmMGQwHQYDVR0OBBYEFDG8
Jpt9OSIPPNBY89weuTOjJJadMB8GA1UdIwQYMBaAFFOrcuRNhyhXN7rw2BcBR9vW
nWI6MBIGA1UdEwEB/wQIMAYBAf8CAQAwDgYDVR0PAQH/BAQDAgKEMAUGAytlcANB
ADiiPPzsksdl7wpj9y0PGZuEd9OYH+5qnq+IOqRrYW6/gClCnFGs61XvpHoD8270
5ZY8Yg3lg4tQwP/W2JrS7g0=
-----END CERTIFICATE-----
-----BEGIN CERTIFICATE-----
MIICNTCCAeegAwIBAgIUNPUUct7LpBZrrF08Bnxkftf87ZkwBQYDK2VwMIGHMQsw
CQYDVQQGEwJVUzELMAkGA1UECAwCTlkxDDAKBgNVBAcMA05ZQzESMBAGA1UECgwJ
VGVzdCBJbmMuMRgwFgYDVQQLDA9UZXN0aW5nIFJvb3QgQ0ExDTALBgNVBAMMBHIw
MHQxIDAeBgkqhkiG9w0BCQEWEXNlY3VyaXR5QHRlc3QuY29tMB4XDTIxMDMyMzE1
MzI0M1oXDTIxMDQyMjE1MzI0M1owgYcxCzAJBgNVBAYTAlVTMQswCQYDVQQIDAJO
WTEMMAoGA1UEBwwDTllDMRIwEAYDVQQKDAlUZXN0IEluYy4xGDAWBgNVBAsMD1Rl
c3RpbmcgUm9vdCBDQTENMAsGA1UEAwwEcjAwdDEgMB4GCSqGSIb3DQEJARYRc2Vj
dXJpdHlAdGVzdC5jb20wKjAFBgMrZXADIQDc8l4EnEy2RQbyyFDvCu5IAJAiIyXw
7wMxfQ97mivAyKNjMGEwHQYDVR0OBBYEFFOrcuRNhyhXN7rw2BcBR9vWnWI6MB8G
A1UdIwQYMBaAFFOrcuRNhyhXN7rw2BcBR9vWnWI6MA8GA1UdEwEB/wQFMAMBAf8w
DgYDVR0PAQH/BAQDAgKEMAUGAytlcANBAKAFCoHMWyCg+UW2FdXfz82F8yqlgMjn
5OyaGiPHK9T+BS603V+eIz3Fgsmxtb8Zqf5rCuUts4wzkI+ugBnEhQs=
-----END CERTIFICATE-----
