Certificate:
    Data:
        Version: 3 (0x2)
        Serial Number: 4096 (0x1000)
        Signature Algorithm: ED25519
        Issuer: C=US, ST=NY, L=NYC, O=Test Inc., OU=Testing Root CA, CN=r00t/emailAddress=security@test.com
        Validity
            Not Before: Jul  7 13:36:43 2021 GMT
            Not After : May 16 13:36:43 2031 GMT
        Subject: C=US, ST=NY, O=Test Inc., OU=Test Intermediary CA, CN=1nt3r/emailAddress=security@test.com
        Subject Public Key Info:
            Public Key Algorithm: ED25519
                ED25519 Public-Key:
                pub:
                    2c:aa:e0:bf:25:b2:53:9d:91:f1:0c:84:be:45:55:
                    9e:9e:cf:1b:41:b8:b8:b0:30:c2:50:cd:32:f0:c7:
                    cb:a7
        X509v3 extensions:
            X509v3 Subject Key Identifier: 
                6B:65:62:CD:02:D7:ED:23:B5:5A:79:BB:88:37:9A:D9:8A:20:94:D0
            X509v3 Authority Key Identifier: 
                keyid:82:9E:09:FF:42:F0:3C:39:FE:E0:6E:22:29:95:F7:A0:F6:CC:99:CD

            X509v3 Basic Constraints: critical
                CA:TRUE, pathlen:0
            X509v3 Key Usage: critical
                Digital Signature, Certificate Sign
    Signature Algorithm: ED25519
         2a:19:40:c4:af:d8:44:8d:33:a3:24:f3:d1:23:2e:ef:21:16:
         24:36:fe:a1:5b:f1:86:a3:6e:10:4c:ab:03:70:c1:73:52:84:
         e6:d5:f8:1e:3c:25:a3:69:1f:b0:f8:28:65:b0:e1:f6:31:6f:
         85:d6:f4:fe:c2:56:8b:01:09:08
-----BEGIN CERTIFICATE-----
MIICHTCCAc+gAwIBAgICEAAwBQYDK2VwMIGHMQswCQYDVQQGEwJVUzELMAkGA1UE
CAwCTlkxDDAKBgNVBAcMA05ZQzESMBAGA1UECgwJVGVzdCBJbmMuMRgwFgYDVQQL
DA9UZXN0aW5nIFJvb3QgQ0ExDTALBgNVBAMMBHIwMHQxIDAeBgkqhkiG9w0BCQEW
EXNlY3VyaXR5QHRlc3QuY29tMB4XDTIxMDcwNzEzMzY0M1oXDTMxMDUxNjEzMzY0
M1owfzELMAkGA1UEBhMCVVMxCzAJBgNVBAgMAk5ZMRIwEAYDVQQKDAlUZXN0IElu
Yy4xHTAbBgNVBAsMFFRlc3QgSW50ZXJtZWRpYXJ5IENBMQ4wDAYDVQQDDAUxbnQz
cjEgMB4GCSqGSIb3DQEJARYRc2VjdXJpdHlAdGVzdC5jb20wKjAFBgMrZXADIQAs
quC/JbJTnZHxDIS+RVWens8bQbi4sDDCUM0y8MfLp6NmMGQwHQYDVR0OBBYEFGtl
Ys0C1+0jtVp5u4g3mtmKIJTQMB8GA1UdIwQYMBaAFIKeCf9C8Dw5/uBuIimV96D2
zJnNMBIGA1UdEwEB/wQIMAYBAf8CAQAwDgYDVR0PAQH/BAQDAgKEMAUGAytlcANB
ACoZQMSv2ESNM6Mk89EjLu8hFiQ2/qFb8YajbhBMqwNwwXNShObV+B48JaNpH7D4
KGWw4fYxb4XW9P7CVosBCQg=
-----END CERTIFICATE-----
-----BEGIN CERTIFICATE-----
MIICNTCCAeegAwIBAgIUC4+IE/Xy+mNest36Rw7WqanEAAIwBQYDK2VwMIGHMQsw
CQYDVQQGEwJVUzELMAkGA1UECAwCTlkxDDAKBgNVBAcMA05ZQzESMBAGA1UECgwJ
VGVzdCBJbmMuMRgwFgYDVQQLDA9UZXN0aW5nIFJvb3QgQ0ExDTALBgNVBAMMBHIw
MHQxIDAeBgkqhkiG9w0BCQEWEXNlY3VyaXR5QHRlc3QuY29tMB4XDTIxMDcwNzEz
MzMxM1oXDTMxMDcwNTEzMzMxM1owgYcxCzAJBgNVBAYTAlVTMQswCQYDVQQIDAJO
WTEMMAoGA1UEBwwDTllDMRIwEAYDVQQKDAlUZXN0IEluYy4xGDAWBgNVBAsMD1Rl
c3RpbmcgUm9vdCBDQTENMAsGA1UEAwwEcjAwdDEgMB4GCSqGSIb3DQEJARYRc2Vj
dXJpdHlAdGVzdC5jb20wKjAFBgMrZXADIQBxuxflg7rBVYIzRAMwK6Q7QjZNeBYG
EvqCCnIDt/LPjKNjMGEwHQYDVR0OBBYEFIKeCf9C8Dw5/uBuIimV96D2zJnNMB8G
A1UdIwQYMBaAFIKeCf9C8Dw5/uBuIimV96D2zJnNMA8GA1UdEwEB/wQFMAMBAf8w
DgYDVR0PAQH/BAQDAgKEMAUGAytlcANBAHRKfM/vTHoBCCWHSZalGa0RSCADhUGp
YTvNN0TpHWTmxSBAcGoE0KtfBlHLjh1i2tqCtIn6PuUXVkkoFDkHEAw=
-----END CERTIFICATE-----
