Certificate:
    Data:
        Version: 3 (0x2)
        Serial Number: 4097 (0x1001)
        Signature Algorithm: ED25519
        Issuer: C=US, ST=NY, O=Test Inc., OU=Test Intermediary CA, CN=1nt3r/emailAddress=security@test.com
        Validity
            Not Before: Mar 23 16:22:06 2021 GMT
            Not After : Jun  9 16:22:06 2029 GMT
        Subject: C=US, ST=NY, L=NYC, O=Test Inc., OU=Test Intermediary CA, CN=cl13nt/emailAddress=security@test.com
        Subject Public Key Info:
            Public Key Algorithm: ED25519
                ED25519 Public-Key:
                pub:
                    16:01:4a:8e:2d:4e:67:3f:0d:ad:e7:8c:13:66:e2:
                    45:47:8c:ec:62:b7:54:3e:7c:f7:6b:3d:89:81:8d:
                    46:b7
        X509v3 extensions:
            X509v3 Basic Constraints: 
                CA:FALSE
            X509v3 Subject Key Identifier: 
                DB:7B:A1:EE:9E:4A:D7:25:0C:E9:51:CD:20:E3:BD:1D:56:0B:7A:08
            X509v3 Authority Key Identifier: 
                keyid:31:BC:26:9B:7D:39:22:0F:3C:D0:58:F3:DC:1E:B9:33:A3:24:96:9D

            X509v3 Key Usage: critical
                Digital Signature, Key Encipherment
            X509v3 Extended Key Usage: 
                TLS Web Server Authentication
    Signature Algorithm: ED25519
         7d:6e:7d:d8:dd:f9:2d:2a:2f:d8:60:0a:d3:65:a1:5e:48:9e:
         6b:9c:f4:5f:60:31:80:0e:00:0c:d0:8a:a8:fb:a3:df:9d:1b:
         b3:5c:7f:1b:21:8b:07:d1:08:eb:37:3a:5a:b5:11:91:8a:2f:
         4c:6e:49:7e:44:fe:a8:6f:f0:0c
-----BEGIN CERTIFICATE-----
MIICMDCCAeKgAwIBAgICEAEwBQYDK2VwMH8xCzAJBgNVBAYTAlVTMQswCQYDVQQI
DAJOWTESMBAGA1UECgwJVGVzdCBJbmMuMR0wGwYDVQQLDBRUZXN0IEludGVybWVk
aWFyeSBDQTEOMAwGA1UEAwwFMW50M3IxIDAeBgkqhkiG9w0BCQEWEXNlY3VyaXR5
QHRlc3QuY29tMB4XDTIxMDMyMzE2MjIwNloXDTI5MDYwOTE2MjIwNlowgY4xCzAJ
BgNVBAYTAlVTMQswCQYDVQQIDAJOWTEMMAoGA1UEBwwDTllDMRIwEAYDVQQKDAlU
ZXN0IEluYy4xHTAbBgNVBAsMFFRlc3QgSW50ZXJtZWRpYXJ5IENBMQ8wDQYDVQQD
DAZjbDEzbnQxIDAeBgkqhkiG9w0BCQEWEXNlY3VyaXR5QHRlc3QuY29tMCowBQYD
K2VwAyEAFgFKji1OZz8NreeME2biRUeM7GK3VD5892s9iYGNRrejcjBwMAkGA1Ud
EwQCMAAwHQYDVR0OBBYEFNt7oe6eStclDOlRzSDjvR1WC3oIMB8GA1UdIwQYMBaA
FDG8Jpt9OSIPPNBY89weuTOjJJadMA4GA1UdDwEB/wQEAwIFoDATBgNVHSUEDDAK
BggrBgEFBQcDATAFBgMrZXADQQB9bn3Y3fktKi/YYArTZaFeSJ5rnPRfYDGADgAM
0Iqo+6PfnRuzXH8bIYsH0QjrNzpatRGRii9Mbkl+RP6ob/AM
-----END CERTIFICATE-----
