Certificate:
    Data:
        Version: 3 (0x2)
        Serial Number: 4097 (0x1001)
        Signature Algorithm: ED25519
        Issuer: C=US, ST=NY, O=Test Inc., OU=Test Intermediary CA, CN=1nt3r/emailAddress=security@test.com
        Validity
            Not Before: Jul  7 13:38:39 2021 GMT
            Not After : Sep 23 13:38:39 2029 GMT
        Subject: C=US, ST=NY, L=NYC, O=Test Inc., OU=Test Intermediary CA, CN=client/emailAddress=security@test.com
        Subject Public Key Info:
            Public Key Algorithm: ED25519
                ED25519 Public-Key:
                pub:
                    80:43:52:3c:02:a3:12:a1:2f:8b:5c:81:ee:22:44:
                    cb:ff:0c:56:06:9f:30:05:d8:e0:68:3b:6b:53:bf:
                    bf:5a
        X509v3 extensions:
            X509v3 Basic Constraints: 
                CA:FALSE
            X509v3 Subject Key Identifier: 
                03:0C:18:75:AC:4F:5D:98:46:EE:32:74:10:59:6A:BE:29:CC:14:9F
            X509v3 Authority Key Identifier: 
                keyid:6B:65:62:CD:02:D7:ED:23:B5:5A:79:BB:88:37:9A:D9:8A:20:94:D0

            X509v3 Key Usage: critical
                Digital Signature, Key Encipherment
            X509v3 Extended Key Usage: 
                TLS Web Server Authentication
    Signature Algorithm: ED25519
         2b:e8:66:51:99:0b:91:fa:af:ea:13:df:f6:49:fc:57:5e:eb:
         28:b9:30:88:98:c7:7b:db:8a:93:4b:f9:c3:c9:a6:df:81:e0:
         63:23:cf:3b:8d:44:33:a5:13:5a:58:87:be:c1:1c:2a:87:8a:
         d5:ce:46:03:04:d5:b0:78:40:0c
-----BEGIN CERTIFICATE-----
MIICMDCCAeKgAwIBAgICEAEwBQYDK2VwMH8xCzAJBgNVBAYTAlVTMQswCQYDVQQI
DAJOWTESMBAGA1UECgwJVGVzdCBJbmMuMR0wGwYDVQQLDBRUZXN0IEludGVybWVk
aWFyeSBDQTEOMAwGA1UEAwwFMW50M3IxIDAeBgkqhkiG9w0BCQEWEXNlY3VyaXR5
QHRlc3QuY29tMB4XDTIxMDcwNzEzMzgzOVoXDTI5MDkyMzEzMzgzOVowgY4xCzAJ
BgNVBAYTAlVTMQswCQYDVQQIDAJOWTEMMAoGA1UEBwwDTllDMRIwEAYDVQQKDAlU
ZXN0IEluYy4xHTAbBgNVBAsMFFRlc3QgSW50ZXJtZWRpYXJ5IENBMQ8wDQYDVQQD
DAZjbGllbnQxIDAeBgkqhkiG9w0BCQEWEXNlY3VyaXR5QHRlc3QuY29tMCowBQYD
K2VwAyEAgENSPAKjEqEvi1yB7iJEy/8MVgafMAXY4Gg7a1O/v1qjcjBwMAkGA1Ud
EwQCMAAwHQYDVR0OBBYEFAMMGHWsT12YRu4ydBBZar4pzBSfMB8GA1UdIwQYMBaA
FGtlYs0C1+0jtVp5u4g3mtmKIJTQMA4GA1UdDwEB/wQEAwIFoDATBgNVHSUEDDAK
BggrBgEFBQcDATAFBgMrZXADQQAr6GZRmQuR+q/qE9/2SfxXXusouTCImMd724qT
S/nDyabfgeBjI887jUQzpRNaWIe+wRwqh4rVzkYDBNWweEAM
-----END CERTIFICATE-----
