Certificate:
    Data:
        Version: 3 (0x2)
        Serial Number: 4096 (0x1000)
        Signature Algorithm: ED25519
        Issuer: C=US, ST=NY, O=Test Inc., OU=Test Intermediary CA, CN=1nt3r/emailAddress=security@test.com
        Validity
            Not Before: Mar 23 16:16:10 2021 GMT
            Not After : Jun  9 16:16:10 2029 GMT
        Subject: C=US, ST=NY, L=NYC, O=Test Inc., OU=Test Intermediary CA, CN=server/emailAddress=security@test.com
        Subject Public Key Info:
            Public Key Algorithm: ED25519
                ED25519 Public-Key:
                pub:
                    c1:ce:ec:2e:94:85:e1:40:88:dc:be:82:73:71:ca:
                    96:12:6c:f0:ff:82:43:76:bf:10:2b:ea:f0:be:34:
                    45:85
        X509v3 extensions:
            X509v3 Basic Constraints: 
                CA:FALSE
            X509v3 Subject Key Identifier: 
                7E:2B:3F:64:2F:C6:90:F1:C9:94:7B:A5:06:1F:51:F7:D1:90:90:8B
            X509v3 Authority Key Identifier: 
                keyid:31:BC:26:9B:7D:39:22:0F:3C:D0:58:F3:DC:1E:B9:33:A3:24:96:9D
                DirName:/C=US/ST=NY/L=NYC/O=Test Inc./OU=Testing Root CA/CN=r00t/emailAddress=security@test.com
                serial:10:00

            X509v3 Key Usage: critical
                Digital Signature, Key Encipherment
            X509v3 Extended Key Usage: 
                TLS Web Client Authentication
            X509v3 Subject Alternative Name: 
                IP Address:0.0.0.0, IP Address:127.0.0.1, IP Address:0:0:0:0:0:0:0:1, DNS:localhost, DNS:0.0.0.0, DNS:127.0.0.1, DNS:::1
    Signature Algorithm: ED25519
         20:e7:35:10:ee:ef:c6:4e:57:a5:da:b0:c0:ea:34:45:99:30:
         e3:4d:75:6e:d4:4f:61:e7:92:85:58:96:7d:6b:fa:a8:0a:94:
         d0:e5:b7:43:f3:09:77:2a:2f:85:07:3d:21:43:7b:1b:45:50:
         b3:dd:71:6d:8a:cb:4c:8e:44:0c
-----BEGIN CERTIFICATE-----
MIIDGDCCAsqgAwIBAgICEAAwBQYDK2VwMH8xCzAJBgNVBAYTAlVTMQswCQYDVQQI
DAJOWTESMBAGA1UECgwJVGVzdCBJbmMuMR0wGwYDVQQLDBRUZXN0IEludGVybWVk
aWFyeSBDQTEOMAwGA1UEAwwFMW50M3IxIDAeBgkqhkiG9w0BCQEWEXNlY3VyaXR5
QHRlc3QuY29tMB4XDTIxMDMyMzE2MTYxMFoXDTI5MDYwOTE2MTYxMFowgY4xCzAJ
BgNVBAYTAlVTMQswCQYDVQQIDAJOWTEMMAoGA1UEBwwDTllDMRIwEAYDVQQKDAlU
ZXN0IEluYy4xHTAbBgNVBAsMFFRlc3QgSW50ZXJtZWRpYXJ5IENBMQ8wDQYDVQQD
DAZzZXJ2ZXIxIDAeBgkqhkiG9w0BCQEWEXNlY3VyaXR5QHRlc3QuY29tMCowBQYD
K2VwAyEAwc7sLpSF4UCI3L6Cc3HKlhJs8P+CQ3a/ECvq8L40RYWjggFYMIIBVDAJ
BgNVHRMEAjAAMB0GA1UdDgQWBBR+Kz9kL8aQ8cmUe6UGH1H30ZCQizCBtQYDVR0j
BIGtMIGqgBQxvCabfTkiDzzQWPPcHrkzoySWnaGBjaSBijCBhzELMAkGA1UEBhMC
VVMxCzAJBgNVBAgMAk5ZMQwwCgYDVQQHDANOWUMxEjAQBgNVBAoMCVRlc3QgSW5j
LjEYMBYGA1UECwwPVGVzdGluZyBSb290IENBMQ0wCwYDVQQDDARyMDB0MSAwHgYJ
KoZIhvcNAQkBFhFzZWN1cml0eUB0ZXN0LmNvbYICEAAwDgYDVR0PAQH/BAQDAgWg
MBMGA1UdJQQMMAoGCCsGAQUFBwMCMEsGA1UdEQREMEKHBAAAAACHBH8AAAGHEAAA
AAAAAAAAAAAAAAAAAAGCCWxvY2FsaG9zdIIHMC4wLjAuMIIJMTI3LjAuMC4xggM6
OjEwBQYDK2VwA0EAIOc1EO7vxk5XpdqwwOo0RZkw4011btRPYeeShViWfWv6qAqU
0OW3Q/MJdyovhQc9IUN7G0VQs91xbYrLTI5EDA==
-----END CERTIFICATE-----
