Certificate:
    Data:
        Version: 3 (0x2)
        Serial Number: 4096 (0x1000)
        Signature Algorithm: ED25519
        Issuer: C=US, ST=NY, O=Test Inc., OU=Test Intermediary CA, CN=1nt3r/emailAddress=security@test.com
        Validity
            Not Before: Jul  7 13:37:59 2021 GMT
            Not After : Sep 23 13:37:59 2029 GMT
        Subject: C=US, ST=NY, L=NYC, O=Test Inc., OU=Test Intermediary CA, CN=server/emailAddress=security@test.com
        Subject Public Key Info:
            Public Key Algorithm: ED25519
                ED25519 Public-Key:
                pub:
                    1e:ff:9b:b5:a6:65:1f:7d:43:1f:91:6a:5b:14:7b:
                    f2:99:e8:a5:21:d9:a7:fd:5e:be:4a:d9:cf:8c:7a:
                    88:cf
        X509v3 extensions:
            X509v3 Basic Constraints: 
                CA:FALSE
            X509v3 Subject Key Identifier: 
                4B:D8:13:D3:03:1E:80:40:4F:01:47:C0:B1:30:F3:CE:A1:69:25:36
            X509v3 Authority Key Identifier: 
                keyid:6B:65:62:CD:02:D7:ED:23:B5:5A:79:BB:88:37:9A:D9:8A:20:94:D0
                DirName:/C=US/ST=NY/L=NYC/O=Test Inc./OU=Testing Root CA/CN=r00t/emailAddress=security@test.com
                serial:10:00

            X509v3 Key Usage: critical
                Digital Signature, Key Encipherment
            X509v3 Extended Key Usage: 
                TLS Web Client Authentication
            X509v3 Subject Alternative Name: 
                IP Address:0.0.0.0, IP Address:127.0.0.1, IP Address:0:0:0:0:0:0:0:1, DNS:localhost, DNS:0.0.0.0, DNS:127.0.0.1, DNS:::1
    Signature Algorithm: ED25519
         8a:ba:bb:ae:e4:24:c6:1c:19:a2:14:06:68:2e:e0:b6:a4:40:
         2d:d9:10:3b:1d:3a:5f:86:e6:06:23:0e:8a:e5:4d:c3:e3:3b:
         a3:0f:3a:d5:3c:31:d9:0e:03:68:d3:be:4a:04:ca:3f:b4:8d:
         82:50:4f:f6:8f:9c:98:4a:c1:09
-----BEGIN CERTIFICATE-----
MIIDGDCCAsqgAwIBAgICEAAwBQYDK2VwMH8xCzAJBgNVBAYTAlVTMQswCQYDVQQI
DAJOWTESMBAGA1UECgwJVGVzdCBJbmMuMR0wGwYDVQQLDBRUZXN0IEludGVybWVk
aWFyeSBDQTEOMAwGA1UEAwwFMW50M3IxIDAeBgkqhkiG9w0BCQEWEXNlY3VyaXR5
QHRlc3QuY29tMB4XDTIxMDcwNzEzMzc1OVoXDTI5MDkyMzEzMzc1OVowgY4xCzAJ
BgNVBAYTAlVTMQswCQYDVQQIDAJOWTEMMAoGA1UEBwwDTllDMRIwEAYDVQQKDAlU
ZXN0IEluYy4xHTAbBgNVBAsMFFRlc3QgSW50ZXJtZWRpYXJ5IENBMQ8wDQYDVQQD
DAZzZXJ2ZXIxIDAeBgkqhkiG9w0BCQEWEXNlY3VyaXR5QHRlc3QuY29tMCowBQYD
K2VwAyEAHv+btaZlH31DH5FqWxR78pnopSHZp/1evkrZz4x6iM+jggFYMIIBVDAJ
BgNVHRMEAjAAMB0GA1UdDgQWBBRL2BPTAx6AQE8BR8CxMPPOoWklNjCBtQYDVR0j
BIGtMIGqgBRrZWLNAtftI7VaebuIN5rZiiCU0KGBjaSBijCBhzELMAkGA1UEBhMC
VVMxCzAJBgNVBAgMAk5ZMQwwCgYDVQQHDANOWUMxEjAQBgNVBAoMCVRlc3QgSW5j
LjEYMBYGA1UECwwPVGVzdGluZyBSb290IENBMQ0wCwYDVQQDDARyMDB0MSAwHgYJ
KoZIhvcNAQkBFhFzZWN1cml0eUB0ZXN0LmNvbYICEAAwDgYDVR0PAQH/BAQDAgWg
MBMGA1UdJQQMMAoGCCsGAQUFBwMCMEsGA1UdEQREMEKHBAAAAACHBH8AAAGHEAAA
AAAAAAAAAAAAAAAAAAGCCWxvY2FsaG9zdIIHMC4wLjAuMIIJMTI3LjAuMC4xggM6
OjEwBQYDK2VwA0EAirq7ruQkxhwZohQGaC7gtqRALdkQOx06X4bmBiMOiuVNw+M7
ow861Twx2Q4DaNO+SgTKP7SNglBP9o+cmErBCQ==
-----END CERTIFICATE-----
